; Function Attrs: mustprogress uwtable
define void @_ZNK32pxrInternal_v0_24__pxrReserved__7UsdPrim31FindAllAttributeConnectionPathsERKNS_22Usd_PrimFlagsPredicateERKSt8functionIFbRKNS_12UsdAttributeEEEb(ptr dead_on_unwind noalias nocapture writable writeonly sret(%"class.std::vector.68") align 8 %0, ptr noundef nonnull align 8 dereferenceable(32) %1, ptr noundef nonnull align 8 dereferenceable(17) %2, ptr noundef nonnull align 8 dereferenceable(32) %3, i1 noundef zeroext %4) local_unnamed_addr #0 align 2 personality ptr @__gxx_personality_v0 {
  %6 = alloca %"struct.pxrInternal_v0_24__pxrReserved__::UsdPrim_TargetFinder", align 8
  tail call void @llvm.experimental.noalias.scope.decl(metadata !117)
  call void @llvm.lifetime.start.p0(i64 1096, ptr nonnull %6)
  call void @_ZN32pxrInternal_v0_24__pxrReserved__20UsdPrim_TargetFinderINS_12UsdAttributeENS_28UsdPrim_AttrConnectionFinderEEC2ERKNS_7UsdPrimERKNS_22Usd_PrimFlagsPredicateERKSt8functionIFbRKS1_EEb(ptr noundef nonnull align 8 dereferenceable(1089) %6, ptr noundef nonnull align 8 dereferenceable(32) %1, ptr noundef nonnull align 8 dereferenceable(17) %2, ptr noundef nonnull align 8 dereferenceable(32) %3, i1 noundef zeroext %4), !noalias !117
  invoke void @_ZN32pxrInternal_v0_24__pxrReserved__20UsdPrim_TargetFinderINS_12UsdAttributeENS_28UsdPrim_AttrConnectionFinderEE5_FindEv(ptr noundef nonnull align 8 dereferenceable(1089) %6)
          to label %_ZN32pxrInternal_v0_24__pxrReserved__20UsdPrim_TargetFinderINS_12UsdAttributeENS_28UsdPrim_AttrConnectionFinderEE4FindERKNS_7UsdPrimERKNS_22Usd_PrimFlagsPredicateERKSt8functionIFbRKS1_EEb.exit unwind label %7, !noalias !117

7:                                                ; preds = %5
  %8 = landingpad { ptr, i32 }
          cleanup
  call void @_ZN32pxrInternal_v0_24__pxrReserved__20UsdPrim_TargetFinderINS_12UsdAttributeENS_28UsdPrim_AttrConnectionFinderEED2Ev(ptr noundef nonnull align 8 dereferenceable(1089) %6) #18, !noalias !117
  resume { ptr, i32 } %8

_ZN32pxrInternal_v0_24__pxrReserved__20UsdPrim_TargetFinderINS_12UsdAttributeENS_28UsdPrim_AttrConnectionFinderEE4FindERKNS_7UsdPrimERKNS_22Usd_PrimFlagsPredicateERKSt8functionIFbRKS1_EEb.exit: ; preds = %5
  %9 = getelementptr inbounds nuw i8, ptr %6, i64 1064
  %10 = load ptr, ptr %9, align 8, !noalias !117
  store ptr %10, ptr %0, align 8, !alias.scope !117
  %11 = getelementptr inbounds nuw i8, ptr %0, i64 8
  %12 = getelementptr inbounds i8, ptr %6, i64 1072
  %13 = load ptr, ptr %12, align 8, !noalias !117
  store ptr %13, ptr %11, align 8, !alias.scope !117
  %14 = getelementptr inbounds nuw i8, ptr %0, i64 16
  %15 = getelementptr inbounds i8, ptr %6, i64 1080
  %16 = load ptr, ptr %15, align 8, !noalias !117
  store ptr %16, ptr %14, align 8, !alias.scope !117
  call void @llvm.memset.p0.i64(ptr noundef nonnull align 8 dereferenceable(24) %9, i8 0, i64 24, i1 false), !noalias !117
  call void @_ZN32pxrInternal_v0_24__pxrReserved__20UsdPrim_TargetFinderINS_12UsdAttributeENS_28UsdPrim_AttrConnectionFinderEED2Ev(ptr noundef nonnull align 8 dereferenceable(1089) %6) #18, !noalias !117
  call void @llvm.lifetime.end.p0(i64 1096, ptr nonnull %6)
  ret void
}